target datalayout = "e-m:e-p270:32:32-p271:32:32-p272:64:64-i64:64-i128:128-f80:128-n8:16:32:64-S128"
target triple = "x86_64-pc-linux-gnu"

%struct.UPropsVectors = type { ptr, i32, i32, i32, i32, i8 }

; Function Attrs: mustprogress nounwind uwtable
define ptr @upvec_getRow_77(ptr noundef %0, i32 noundef %1, ptr noundef %2, ptr noundef %3) #6 {
  %5 = alloca ptr, align 8
  %6 = alloca ptr, align 8
  %7 = alloca i32, align 4
  %8 = alloca ptr, align 8
  %9 = alloca ptr, align 8
  %10 = alloca ptr, align 8
  %11 = alloca i32, align 4
  %12 = alloca i32, align 4
  store ptr %0, ptr %6, align 8, !tbaa !11
  store i32 %1, ptr %7, align 4, !tbaa !3
  store ptr %2, ptr %8, align 8, !tbaa !13
  store ptr %3, ptr %9, align 8, !tbaa !13
  call void @llvm.lifetime.start.p0(i64 8, ptr %10) #9
  call void @llvm.lifetime.start.p0(i64 4, ptr %11) #9
  %13 = load ptr, ptr %6, align 8, !tbaa !11
  %14 = getelementptr inbounds nuw %struct.UPropsVectors, ptr %13, i32 0, i32 5
  %15 = load i8, ptr %14, align 8, !tbaa !22
  %16 = icmp ne i8 %15, 0
  br i1 %16, label %26, label %17

17:                                               ; preds = %4
  %18 = load i32, ptr %7, align 4, !tbaa !3
  %19 = icmp slt i32 %18, 0
  br i1 %19, label %26, label %20

20:                                               ; preds = %17
  %21 = load i32, ptr %7, align 4, !tbaa !3
  %22 = load ptr, ptr %6, align 8, !tbaa !11
  %23 = getelementptr inbounds nuw %struct.UPropsVectors, ptr %22, i32 0, i32 3
  %24 = load i32, ptr %23, align 8, !tbaa !19
  %25 = icmp sge i32 %21, %24
  br i1 %25, label %26, label %27

26:                                               ; preds = %20, %17, %4
  store ptr null, ptr %5, align 8
  store i32 1, ptr %12, align 4
  br label %58

27:                                               ; preds = %20
  %28 = load ptr, ptr %6, align 8, !tbaa !11
  %29 = getelementptr inbounds nuw %struct.UPropsVectors, ptr %28, i32 0, i32 1
  %30 = load i32, ptr %29, align 8, !tbaa !17
  store i32 %30, ptr %11, align 4, !tbaa !3
  %31 = load ptr, ptr %6, align 8, !tbaa !11
  %32 = getelementptr inbounds nuw %struct.UPropsVectors, ptr %31, i32 0, i32 0
  %33 = load ptr, ptr %32, align 8, !tbaa !15
  %34 = load i32, ptr %7, align 4, !tbaa !3
  %35 = load i32, ptr %11, align 4, !tbaa !3
  %36 = mul nsw i32 %34, %35
  %37 = sext i32 %36 to i64
  %38 = getelementptr inbounds i32, ptr %33, i64 %37
  store ptr %38, ptr %10, align 8, !tbaa !13
  %39 = load ptr, ptr %8, align 8, !tbaa !13
  %40 = icmp ne ptr %39, null
  br i1 %40, label %41, label %46

41:                                               ; preds = %27
  %42 = load ptr, ptr %10, align 8, !tbaa !13
  %43 = getelementptr inbounds i32, ptr %42, i64 0
  %44 = load i32, ptr %43, align 4, !tbaa !3
  %45 = load ptr, ptr %8, align 8, !tbaa !13
  store i32 %44, ptr %45, align 4, !tbaa !3
  br label %46

46:                                               ; preds = %41, %27
  %47 = load ptr, ptr %9, align 8, !tbaa !13
  %48 = icmp ne ptr %47, null
  br i1 %48, label %49, label %55

49:                                               ; preds = %46
  %50 = load ptr, ptr %10, align 8, !tbaa !13
  %51 = getelementptr inbounds i32, ptr %50, i64 1
  %52 = load i32, ptr %51, align 4, !tbaa !3
  %53 = sub nsw i32 %52, 1
  %54 = load ptr, ptr %9, align 8, !tbaa !13
  store i32 %53, ptr %54, align 4, !tbaa !3
  br label %55

55:                                               ; preds = %49, %46
  %56 = load ptr, ptr %10, align 8, !tbaa !13
  %57 = getelementptr inbounds i32, ptr %56, i64 2
  store ptr %57, ptr %5, align 8
  store i32 1, ptr %12, align 4
  br label %58

58:                                               ; preds = %55, %26
  call void @llvm.lifetime.end.p0(i64 4, ptr %11) #9
  call void @llvm.lifetime.end.p0(i64 8, ptr %10) #9
  %59 = load ptr, ptr %5, align 8
  ret ptr %59
}