; Function Attrs: mustprogress nofree norecurse nosync nounwind willreturn memory(read, argmem: readwrite, inaccessiblemem: none) uwtable
define ptr @upvec_getRow_77(ptr noundef readonly captures(none) %0, i32 noundef %1, ptr noundef writeonly %2, ptr noundef writeonly %3) local_unnamed_addr #7 {
  %5 = getelementptr inbounds nuw i8, ptr %0, i64 24
  %6 = load i8, ptr %5, align 8, !tbaa !18
  %7 = icmp ne i8 %6, 0
  %8 = icmp slt i32 %1, 0
  %or.cond = or i1 %8, %7
  br i1 %or.cond, label %28, label %9

9:                                                ; preds = %4
  %10 = getelementptr inbounds nuw i8, ptr %0, i64 16
  %11 = load i32, ptr %10, align 8, !tbaa !14
  %.not = icmp slt i32 %1, %11
  br i1 %.not, label %12, label %28

12:                                               ; preds = %9
  %13 = getelementptr inbounds nuw i8, ptr %0, i64 8
  %14 = load i32, ptr %13, align 8, !tbaa !12
  %15 = load ptr, ptr %0, align 8, !tbaa !7
  %16 = mul nsw i32 %14, %1
  %17 = sext i32 %16 to i64
  %18 = getelementptr inbounds i32, ptr %15, i64 %17
  %.not19 = icmp eq ptr %2, null
  br i1 %.not19, label %21, label %19

19:                                               ; preds = %12
  %20 = load i32, ptr %18, align 4, !tbaa !15
  store i32 %20, ptr %2, align 4, !tbaa !15
  br label %21

21:                                               ; preds = %19, %12
  %.not20 = icmp eq ptr %3, null
  br i1 %.not20, label %26, label %22

22:                                               ; preds = %21
  %23 = getelementptr inbounds nuw i8, ptr %18, i64 4
  %24 = load i32, ptr %23, align 4, !tbaa !15
  %25 = add nsw i32 %24, -1
  store i32 %25, ptr %3, align 4, !tbaa !15
  br label %26

26:                                               ; preds = %22, %21
  %27 = getelementptr inbounds nuw i8, ptr %18, i64 8
  br label %28

28:                                               ; preds = %4, %9, %26
  %.0 = phi ptr [ %27, %26 ], [ null, %9 ], [ null, %4 ]
  ret ptr %.0
}